target datalayout = "e-m:e-p270:32:32-p271:32:32-p272:64:64-i64:64-i128:128-f80:128-n8:16:32:64-S128"
target triple = "x86_64-pc-linux-gnu"

%struct.__mm_loadl_epi64_struct = type { i64 }
%struct.__mm_storel_epi64_struct = type { i64 }

; Function Attrs: alwaysinline nounwind uwtable
define internal <2 x i64> @_mm_set_epi16(i16 noundef signext %0, i16 noundef signext %1, i16 noundef signext %2, i16 noundef signext %3, i16 noundef signext %4, i16 noundef signext %5, i16 noundef signext %6, i16 noundef signext %7) #3 {
  %9 = alloca i16, align 2
  %10 = alloca i16, align 2
  %11 = alloca i16, align 2
  %12 = alloca i16, align 2
  %13 = alloca i16, align 2
  %14 = alloca i16, align 2
  %15 = alloca i16, align 2
  %16 = alloca i16, align 2
  %17 = alloca <8 x i16>, align 16
  store i16 %0, ptr %9, align 2, !tbaa !39
  store i16 %1, ptr %10, align 2, !tbaa !39
  store i16 %2, ptr %11, align 2, !tbaa !39
  store i16 %3, ptr %12, align 2, !tbaa !39
  store i16 %4, ptr %13, align 2, !tbaa !39
  store i16 %5, ptr %14, align 2, !tbaa !39
  store i16 %6, ptr %15, align 2, !tbaa !39
  store i16 %7, ptr %16, align 2, !tbaa !39
  %18 = load i16, ptr %16, align 2, !tbaa !39
  %19 = insertelement <8 x i16> poison, i16 %18, i32 0
  %20 = load i16, ptr %15, align 2, !tbaa !39
  %21 = insertelement <8 x i16> %19, i16 %20, i32 1
  %22 = load i16, ptr %14, align 2, !tbaa !39
  %23 = insertelement <8 x i16> %21, i16 %22, i32 2
  %24 = load i16, ptr %13, align 2, !tbaa !39
  %25 = insertelement <8 x i16> %23, i16 %24, i32 3
  %26 = load i16, ptr %12, align 2, !tbaa !39
  %27 = insertelement <8 x i16> %25, i16 %26, i32 4
  %28 = load i16, ptr %11, align 2, !tbaa !39
  %29 = insertelement <8 x i16> %27, i16 %28, i32 5
  %30 = load i16, ptr %10, align 2, !tbaa !39
  %31 = insertelement <8 x i16> %29, i16 %30, i32 6
  %32 = load i16, ptr %9, align 2, !tbaa !39
  %33 = insertelement <8 x i16> %31, i16 %32, i32 7
  store <8 x i16> %33, ptr %17, align 16, !tbaa !11
  %34 = load <8 x i16>, ptr %17, align 16, !tbaa !11
  %35 = bitcast <8 x i16> %34 to <2 x i64>
  ret <2 x i64> %35
}

; Function Attrs: alwaysinline nounwind uwtable
define internal void @_mm_storel_epi64(ptr noundef %0, <2 x i64> noundef %1) #3 {
  %3 = alloca ptr, align 8
  %4 = alloca <2 x i64>, align 16
  store ptr %0, ptr %3, align 8, !tbaa !3
  store <2 x i64> %1, ptr %4, align 16, !tbaa !11
  %5 = load <2 x i64>, ptr %4, align 16, !tbaa !11
  %6 = extractelement <2 x i64> %5, i32 0
  %7 = load ptr, ptr %3, align 8, !tbaa !3
  %8 = getelementptr inbounds nuw %struct.__mm_storel_epi64_struct, ptr %7, i32 0, i32 0
  store i64 %6, ptr %8, align 1, !tbaa !11
  ret void
}

; Function Attrs: alwaysinline nounwind uwtable
define internal <2 x i64> @_mm_packus_epi16(<2 x i64> noundef %0, <2 x i64> noundef %1) #3 {
  %3 = alloca <2 x i64>, align 16
  %4 = alloca <2 x i64>, align 16
  store <2 x i64> %0, ptr %3, align 16, !tbaa !11
  store <2 x i64> %1, ptr %4, align 16, !tbaa !11
  %5 = load <2 x i64>, ptr %3, align 16, !tbaa !11
  %6 = bitcast <2 x i64> %5 to <8 x i16>
  %7 = load <2 x i64>, ptr %4, align 16, !tbaa !11
  %8 = bitcast <2 x i64> %7 to <8 x i16>
  %9 = call <16 x i8> @llvm.x86.sse2.packuswb.128(<8 x i16> %6, <8 x i16> %8)
  %10 = bitcast <16 x i8> %9 to <2 x i64>
  ret <2 x i64> %10
}

; Function Attrs: alwaysinline nounwind uwtable
define internal <2 x i64> @_mm_mulhi_epu16(<2 x i64> noundef %0, <2 x i64> noundef %1) #3 {
  %3 = alloca <2 x i64>, align 16
  %4 = alloca <2 x i64>, align 16
  store <2 x i64> %0, ptr %3, align 16, !tbaa !11
  store <2 x i64> %1, ptr %4, align 16, !tbaa !11
  %5 = load <2 x i64>, ptr %3, align 16, !tbaa !11
  %6 = bitcast <2 x i64> %5 to <8 x i16>
  %7 = load <2 x i64>, ptr %4, align 16, !tbaa !11
  %8 = bitcast <2 x i64> %7 to <8 x i16>
  %9 = call <8 x i16> @llvm.x86.sse2.pmulhu.w(<8 x i16> %6, <8 x i16> %8)
  %10 = bitcast <8 x i16> %9 to <2 x i64>
  ret <2 x i64> %10
}

; Function Attrs: alwaysinline nounwind uwtable
define internal <2 x i64> @_mm_add_epi16(<2 x i64> noundef %0, <2 x i64> noundef %1) #3 {
  %3 = alloca <2 x i64>, align 16
  %4 = alloca <2 x i64>, align 16
  store <2 x i64> %0, ptr %3, align 16, !tbaa !11
  store <2 x i64> %1, ptr %4, align 16, !tbaa !11
  %5 = load <2 x i64>, ptr %3, align 16, !tbaa !11
  %6 = bitcast <2 x i64> %5 to <8 x i16>
  %7 = load <2 x i64>, ptr %4, align 16, !tbaa !11
  %8 = bitcast <2 x i64> %7 to <8 x i16>
  %9 = add <8 x i16> %6, %8
  %10 = bitcast <8 x i16> %9 to <2 x i64>
  ret <2 x i64> %10
}

; Function Attrs: alwaysinline nounwind uwtable
define internal <2 x i64> @_mm_mullo_epi16(<2 x i64> noundef %0, <2 x i64> noundef %1) #3 {
  %3 = alloca <2 x i64>, align 16
  %4 = alloca <2 x i64>, align 16
  store <2 x i64> %0, ptr %3, align 16, !tbaa !11
  store <2 x i64> %1, ptr %4, align 16, !tbaa !11
  %5 = load <2 x i64>, ptr %3, align 16, !tbaa !11
  %6 = bitcast <2 x i64> %5 to <8 x i16>
  %7 = load <2 x i64>, ptr %4, align 16, !tbaa !11
  %8 = bitcast <2 x i64> %7 to <8 x i16>
  %9 = mul <8 x i16> %6, %8
  %10 = bitcast <8 x i16> %9 to <2 x i64>
  ret <2 x i64> %10
}

; Function Attrs: alwaysinline nounwind uwtable
define internal <2 x i64> @_mm_unpacklo_epi8(<2 x i64> noundef %0, <2 x i64> noundef %1) #3 {
  %3 = alloca <2 x i64>, align 16
  %4 = alloca <2 x i64>, align 16
  store <2 x i64> %0, ptr %3, align 16, !tbaa !11
  store <2 x i64> %1, ptr %4, align 16, !tbaa !11
  %5 = load <2 x i64>, ptr %3, align 16, !tbaa !11
  %6 = bitcast <2 x i64> %5 to <16 x i8>
  %7 = load <2 x i64>, ptr %4, align 16, !tbaa !11
  %8 = bitcast <2 x i64> %7 to <16 x i8>
  %9 = shufflevector <16 x i8> %6, <16 x i8> %8, <16 x i32> <i32 0, i32 16, i32 1, i32 17, i32 2, i32 18, i32 3, i32 19, i32 4, i32 20, i32 5, i32 21, i32 6, i32 22, i32 7, i32 23>
  %10 = bitcast <16 x i8> %9 to <2 x i64>
  ret <2 x i64> %10
}

; Function Attrs: alwaysinline nounwind uwtable
define internal <2 x i64> @_mm_loadl_epi64(ptr noundef %0) #3 {
  %2 = alloca ptr, align 8
  %3 = alloca <2 x i64>, align 16
  store ptr %0, ptr %2, align 8, !tbaa !3
  %4 = load ptr, ptr %2, align 8, !tbaa !3
  %5 = getelementptr inbounds nuw %struct.__mm_loadl_epi64_struct, ptr %4, i32 0, i32 0
  %6 = load i64, ptr %5, align 1, !tbaa !11
  %7 = insertelement <2 x i64> poison, i64 %6, i32 0
  %8 = insertelement <2 x i64> %7, i64 0, i32 1
  store <2 x i64> %8, ptr %3, align 16, !tbaa !11
  %9 = load <2 x i64>, ptr %3, align 16, !tbaa !11
  ret <2 x i64> %9
}

; Function Attrs: alwaysinline nounwind uwtable
define internal <2 x i64> @_mm_set1_epi16(i16 noundef signext %0) #3 {
  %2 = alloca i16, align 2
  store i16 %0, ptr %2, align 2, !tbaa !39
  %3 = load i16, ptr %2, align 2, !tbaa !39
  %4 = load i16, ptr %2, align 2, !tbaa !39
  %5 = load i16, ptr %2, align 2, !tbaa !39
  %6 = load i16, ptr %2, align 2, !tbaa !39
  %7 = load i16, ptr %2, align 2, !tbaa !39
  %8 = load i16, ptr %2, align 2, !tbaa !39
  %9 = load i16, ptr %2, align 2, !tbaa !39
  %10 = load i16, ptr %2, align 2, !tbaa !39
  %11 = call <2 x i64> @_mm_set_epi16(i16 noundef signext %3, i16 noundef signext %4, i16 noundef signext %5, i16 noundef signext %6, i16 noundef signext %7, i16 noundef signext %8, i16 noundef signext %9, i16 noundef signext %10)
  ret <2 x i64> %11
}

; Function Attrs: alwaysinline nounwind uwtable
define internal <2 x i64> @_mm_setzero_si128() #3 {
  %1 = alloca <2 x i64>, align 16
  store <2 x i64> zeroinitializer, ptr %1, align 16, !tbaa !11
  %2 = load <2 x i64>, ptr %1, align 16, !tbaa !11
  ret <2 x i64> %2
}

; Function Attrs: nounwind uwtable
define internal void @MultRow_SSE2(ptr noalias noundef %0, ptr noalias noundef %1, i32 noundef %2, i32 noundef %3) #1 {
  %5 = alloca ptr, align 8
  %6 = alloca ptr, align 8
  %7 = alloca i32, align 4
  %8 = alloca i32, align 4
  %9 = alloca i32, align 4
  %10 = alloca <2 x i64>, align 16
  %11 = alloca <2 x i64>, align 16
  %12 = alloca <2 x i64>, align 16
  %13 = alloca <2 x i64>, align 16
  %14 = alloca <2 x i64>, align 16
  %15 = alloca <2 x i64>, align 16
  %16 = alloca <2 x i64>, align 16
  %17 = alloca <2 x i64>, align 16
  %18 = alloca <2 x i64>, align 16
  %19 = alloca <2 x i64>, align 16
  %20 = alloca <2 x i64>, align 16
  store ptr %0, ptr %5, align 8, !tbaa !14
  store ptr %1, ptr %6, align 8, !tbaa !14
  store i32 %2, ptr %7, align 4, !tbaa !9
  store i32 %3, ptr %8, align 4, !tbaa !9
  call void @llvm.lifetime.start.p0(i64 4, ptr %9) #6
  store i32 0, ptr %9, align 4, !tbaa !9
  %21 = load i32, ptr %8, align 4, !tbaa !9
  %22 = icmp ne i32 %21, 0
  br i1 %22, label %70, label %23

23:                                               ; preds = %4
  call void @llvm.lifetime.start.p0(i64 16, ptr %10) #6
  %24 = call <2 x i64> @_mm_setzero_si128()
  store <2 x i64> %24, ptr %10, align 16, !tbaa !11
  call void @llvm.lifetime.start.p0(i64 16, ptr %11) #6
  %25 = call <2 x i64> @_mm_set1_epi16(i16 noundef signext 128)
  store <2 x i64> %25, ptr %11, align 16, !tbaa !11
  call void @llvm.lifetime.start.p0(i64 16, ptr %12) #6
  %26 = call <2 x i64> @_mm_set1_epi16(i16 noundef signext 257)
  store <2 x i64> %26, ptr %12, align 16, !tbaa !11
  store i32 0, ptr %9, align 4, !tbaa !9
  br label %27

27:                                               ; preds = %66, %23
  %28 = load i32, ptr %9, align 4, !tbaa !9
  %29 = add nsw i32 %28, 8
  %30 = load i32, ptr %7, align 4, !tbaa !9
  %31 = icmp sle i32 %29, %30
  br i1 %31, label %32, label %69

32:                                               ; preds = %27
  call void @llvm.lifetime.start.p0(i64 16, ptr %13) #6
  %33 = load ptr, ptr %5, align 8, !tbaa !14
  %34 = load i32, ptr %9, align 4, !tbaa !9
  %35 = sext i32 %34 to i64
  %36 = getelementptr inbounds i8, ptr %33, i64 %35
  %37 = call <2 x i64> @_mm_loadl_epi64(ptr noundef %36)
  store <2 x i64> %37, ptr %13, align 16, !tbaa !11
  call void @llvm.lifetime.start.p0(i64 16, ptr %14) #6
  %38 = load ptr, ptr %6, align 8, !tbaa !14
  %39 = load i32, ptr %9, align 4, !tbaa !9
  %40 = sext i32 %39 to i64
  %41 = getelementptr inbounds i8, ptr %38, i64 %40
  %42 = call <2 x i64> @_mm_loadl_epi64(ptr noundef %41)
  store <2 x i64> %42, ptr %14, align 16, !tbaa !11
  call void @llvm.lifetime.start.p0(i64 16, ptr %15) #6
  %43 = load <2 x i64>, ptr %13, align 16, !tbaa !11
  %44 = load <2 x i64>, ptr %10, align 16, !tbaa !11
  %45 = call <2 x i64> @_mm_unpacklo_epi8(<2 x i64> noundef %43, <2 x i64> noundef %44)
  store <2 x i64> %45, ptr %15, align 16, !tbaa !11
  call void @llvm.lifetime.start.p0(i64 16, ptr %16) #6
  %46 = load <2 x i64>, ptr %14, align 16, !tbaa !11
  %47 = load <2 x i64>, ptr %10, align 16, !tbaa !11
  %48 = call <2 x i64> @_mm_unpacklo_epi8(<2 x i64> noundef %46, <2 x i64> noundef %47)
  store <2 x i64> %48, ptr %16, align 16, !tbaa !11
  call void @llvm.lifetime.start.p0(i64 16, ptr %17) #6
  %49 = load <2 x i64>, ptr %15, align 16, !tbaa !11
  %50 = load <2 x i64>, ptr %16, align 16, !tbaa !11
  %51 = call <2 x i64> @_mm_mullo_epi16(<2 x i64> noundef %49, <2 x i64> noundef %50)
  store <2 x i64> %51, ptr %17, align 16, !tbaa !11
  call void @llvm.lifetime.start.p0(i64 16, ptr %18) #6
  %52 = load <2 x i64>, ptr %17, align 16, !tbaa !11
  %53 = load <2 x i64>, ptr %11, align 16, !tbaa !11
  %54 = call <2 x i64> @_mm_add_epi16(<2 x i64> noundef %52, <2 x i64> noundef %53)
  store <2 x i64> %54, ptr %18, align 16, !tbaa !11
  call void @llvm.lifetime.start.p0(i64 16, ptr %19) #6
  %55 = load <2 x i64>, ptr %18, align 16, !tbaa !11
  %56 = load <2 x i64>, ptr %12, align 16, !tbaa !11
  %57 = call <2 x i64> @_mm_mulhi_epu16(<2 x i64> noundef %55, <2 x i64> noundef %56)
  store <2 x i64> %57, ptr %19, align 16, !tbaa !11
  call void @llvm.lifetime.start.p0(i64 16, ptr %20) #6
  %58 = load <2 x i64>, ptr %19, align 16, !tbaa !11
  %59 = load <2 x i64>, ptr %10, align 16, !tbaa !11
  %60 = call <2 x i64> @_mm_packus_epi16(<2 x i64> noundef %58, <2 x i64> noundef %59)
  store <2 x i64> %60, ptr %20, align 16, !tbaa !11
  %61 = load ptr, ptr %5, align 8, !tbaa !14
  %62 = load i32, ptr %9, align 4, !tbaa !9
  %63 = sext i32 %62 to i64
  %64 = getelementptr inbounds i8, ptr %61, i64 %63
  %65 = load <2 x i64>, ptr %20, align 16, !tbaa !11
  call void @_mm_storel_epi64(ptr noundef %64, <2 x i64> noundef %65)
  call void @llvm.lifetime.end.p0(i64 16, ptr %20) #6
  call void @llvm.lifetime.end.p0(i64 16, ptr %19) #6
  call void @llvm.lifetime.end.p0(i64 16, ptr %18) #6
  call void @llvm.lifetime.end.p0(i64 16, ptr %17) #6
  call void @llvm.lifetime.end.p0(i64 16, ptr %16) #6
  call void @llvm.lifetime.end.p0(i64 16, ptr %15) #6
  call void @llvm.lifetime.end.p0(i64 16, ptr %14) #6
  call void @llvm.lifetime.end.p0(i64 16, ptr %13) #6
  br label %66

66:                                               ; preds = %32
  %67 = load i32, ptr %9, align 4, !tbaa !9
  %68 = add nsw i32 %67, 8
  store i32 %68, ptr %9, align 4, !tbaa !9
  br label %27, !llvm.loop !16

69:                                               ; preds = %27
  call void @llvm.lifetime.end.p0(i64 16, ptr %12) #6
  call void @llvm.lifetime.end.p0(i64 16, ptr %11) #6
  call void @llvm.lifetime.end.p0(i64 16, ptr %10) #6
  br label %70

70:                                               ; preds = %69, %4
  %71 = load i32, ptr %9, align 4, !tbaa !9
  %72 = load i32, ptr %7, align 4, !tbaa !9
  %73 = sub nsw i32 %72, %71
  store i32 %73, ptr %7, align 4, !tbaa !9
  %74 = load i32, ptr %7, align 4, !tbaa !9
  %75 = icmp sgt i32 %74, 0
  br i1 %75, label %76, label %87

76:                                               ; preds = %70
  %77 = load ptr, ptr %5, align 8, !tbaa !14
  %78 = load i32, ptr %9, align 4, !tbaa !9
  %79 = sext i32 %78 to i64
  %80 = getelementptr inbounds i8, ptr %77, i64 %79
  %81 = load ptr, ptr %6, align 8, !tbaa !14
  %82 = load i32, ptr %9, align 4, !tbaa !9
  %83 = sext i32 %82 to i64
  %84 = getelementptr inbounds i8, ptr %81, i64 %83
  %85 = load i32, ptr %7, align 4, !tbaa !9
  %86 = load i32, ptr %8, align 4, !tbaa !9
  call void @WebPMultRow_C(ptr noundef %80, ptr noundef %84, i32 noundef %85, i32 noundef %86)
  br label %87

87:                                               ; preds = %76, %70
  call void @llvm.lifetime.end.p0(i64 4, ptr %9) #6
  ret void
}