; Function Attrs: nounwind uwtable
define internal void @MultRow_SSE2(ptr noalias noundef %0, ptr noalias noundef %1, i32 noundef %2, i32 noundef %3) #1 {
  %.not = icmp ne i32 %3, 0
  %.not3334 = icmp slt i32 %2, 8
  %or.cond = or i1 %.not, %.not3334
  br i1 %or.cond, label %.loopexit, label %.lr.ph.preheader

.lr.ph.preheader:                                 ; preds = %4
  %5 = zext nneg i32 %2 to i64
  br label %.lr.ph

.lr.ph:                                           ; preds = %.lr.ph.preheader, %.lr.ph
  %indvars.iv36 = phi i64 [ 0, %.lr.ph.preheader ], [ %indvars.iv.next37, %.lr.ph ]
  %indvars.iv = phi i64 [ 8, %.lr.ph.preheader ], [ %indvars.iv.next, %.lr.ph ]
  %6 = getelementptr inbounds nuw i8, ptr %0, i64 %indvars.iv36
  %7 = load i64, ptr %6, align 1, !tbaa !7
  %8 = insertelement <2 x i64> poison, i64 %7, i64 0
  %9 = getelementptr inbounds nuw i8, ptr %1, i64 %indvars.iv36
  %10 = load i64, ptr %9, align 1, !tbaa !7
  %11 = insertelement <2 x i64> poison, i64 %10, i64 0
  %12 = bitcast <2 x i64> %8 to <16 x i8>
  %13 = shufflevector <16 x i8> %12, <16 x i8> <i8 0, i8 0, i8 0, i8 0, i8 0, i8 0, i8 0, i8 0, i8 poison, i8 poison, i8 poison, i8 poison, i8 poison, i8 poison, i8 poison, i8 poison>, <16 x i32> <i32 0, i32 16, i32 1, i32 17, i32 2, i32 18, i32 3, i32 19, i32 4, i32 20, i32 5, i32 21, i32 6, i32 22, i32 7, i32 23>
  %14 = bitcast <2 x i64> %11 to <16 x i8>
  %15 = shufflevector <16 x i8> %14, <16 x i8> <i8 0, i8 0, i8 0, i8 0, i8 0, i8 0, i8 0, i8 0, i8 poison, i8 poison, i8 poison, i8 poison, i8 poison, i8 poison, i8 poison, i8 poison>, <16 x i32> <i32 0, i32 16, i32 1, i32 17, i32 2, i32 18, i32 3, i32 19, i32 4, i32 20, i32 5, i32 21, i32 6, i32 22, i32 7, i32 23>
  %16 = bitcast <16 x i8> %13 to <8 x i16>
  %17 = bitcast <16 x i8> %15 to <8 x i16>
  %18 = mul nuw <8 x i16> %17, %16
  %19 = add <8 x i16> %18, splat (i16 128)
  %20 = tail call <8 x i16> @llvm.x86.sse2.pmulhu.w(<8 x i16> %19, <8 x i16> splat (i16 257))
  %21 = tail call <16 x i8> @llvm.x86.sse2.packuswb.128(<8 x i16> %20, <8 x i16> poison)
  %22 = bitcast <16 x i8> %21 to <2 x i64>
  %23 = extractelement <2 x i64> %22, i64 0
  store i64 %23, ptr %6, align 1, !tbaa !7
  %indvars.iv.next = add nuw nsw i64 %indvars.iv, 8
  %.not33 = icmp samesign ugt i64 %indvars.iv.next, %5
  %indvars.iv.next37 = add nuw nsw i64 %indvars.iv36, 8
  br i1 %.not33, label %.loopexit.loopexit, label %.lr.ph, !llvm.loop !10

.loopexit.loopexit:                               ; preds = %.lr.ph
  %24 = trunc nuw nsw i64 %indvars.iv to i32
  br label %.loopexit

.loopexit:                                        ; preds = %.loopexit.loopexit, %4
  %.0 = phi i32 [ 0, %4 ], [ %24, %.loopexit.loopexit ]
  %25 = sub nsw i32 %2, %.0
  %26 = icmp sgt i32 %25, 0
  br i1 %26, label %27, label %31

27:                                               ; preds = %.loopexit
  %28 = zext nneg i32 %.0 to i64
  %29 = getelementptr inbounds nuw i8, ptr %0, i64 %28
  %30 = getelementptr inbounds nuw i8, ptr %1, i64 %28
  tail call void @WebPMultRow_C(ptr noundef %29, ptr noundef %30, i32 noundef %25, i32 noundef %3) #6
  br label %31

31:                                               ; preds = %27, %.loopexit
  ret void
}